target datalayout = "e-m:e-p270:32:32-p271:32:32-p272:64:64-i64:64-i128:128-f80:128-n8:16:32:64-S128"
target triple = "x86_64-pc-linux-gnu"

@.str.22 = private unnamed_addr constant [9 x i8] c"ppp_hdlc\00", align 1
@chdlc_cap_handle = internal global ptr null, align 8

; Function Attrs: inlinehint nounwind null_pointer_is_valid sspstrong uwtable
define internal zeroext i16 @pntoh16(ptr noundef %0) #5 {
  %2 = alloca ptr, align 8
  store ptr %0, ptr %2, align 8
  %3 = load ptr, ptr %2, align 8
  %4 = getelementptr i8, ptr %3, i64 0
  %5 = load i8, ptr %4, align 1
  %6 = zext i8 %5 to i16
  %7 = zext i16 %6 to i32
  %8 = shl i32 %7, 8
  %9 = load ptr, ptr %2, align 8
  %10 = getelementptr i8, ptr %9, i64 1
  %11 = load i8, ptr %10, align 1
  %12 = zext i8 %11 to i16
  %13 = zext i16 %12 to i32
  %14 = shl i32 %13, 0
  %15 = or i32 %8, %14
  %16 = trunc i32 %15 to i16
  ret i16 %16
}

; Function Attrs: null_pointer_is_valid sspstrong uwtable
define internal zeroext i1 @capture_ppp_hdlc(ptr noundef %0, i32 noundef %1, i32 noundef %2, ptr noundef %3, ptr noundef %4) #1 {
  %6 = alloca i1, align 1
  %7 = alloca ptr, align 8
  %8 = alloca i32, align 4
  %9 = alloca i32, align 4
  %10 = alloca ptr, align 8
  %11 = alloca ptr, align 8
  store ptr %0, ptr %7, align 8
  store i32 %1, ptr %8, align 4
  store i32 %2, ptr %9, align 4
  store ptr %3, ptr %10, align 8
  store ptr %4, ptr %11, align 8
  %12 = load i32, ptr %8, align 4
  %13 = add i32 %12, 2
  %14 = load i32, ptr %8, align 4
  %15 = icmp ugt i32 %13, %14
  br i1 %15, label %16, label %21

16:                                               ; preds = %5
  %17 = load i32, ptr %8, align 4
  %18 = add i32 %17, 2
  %19 = load i32, ptr %9, align 4
  %20 = icmp ule i32 %18, %19
  br i1 %20, label %22, label %21

21:                                               ; preds = %16, %5
  store i1 false, ptr %6, align 1
  br label %68

22:                                               ; preds = %16
  %23 = load ptr, ptr %7, align 8
  %24 = getelementptr i8, ptr %23, i64 0
  %25 = load i8, ptr %24, align 1
  %26 = zext i8 %25 to i32
  %27 = icmp eq i32 %26, 15
  br i1 %27, label %34, label %28

28:                                               ; preds = %22
  %29 = load ptr, ptr %7, align 8
  %30 = getelementptr i8, ptr %29, i64 0
  %31 = load i8, ptr %30, align 1
  %32 = zext i8 %31 to i32
  %33 = icmp eq i32 %32, 143
  br i1 %33, label %34, label %42

34:                                               ; preds = %28, %22
  %35 = load ptr, ptr @chdlc_cap_handle, align 8
  %36 = load ptr, ptr %7, align 8
  %37 = load i32, ptr %8, align 4
  %38 = load i32, ptr %9, align 4
  %39 = load ptr, ptr %10, align 8
  %40 = load ptr, ptr %11, align 8
  %41 = call zeroext i1 @call_capture_dissector(ptr noundef %35, ptr noundef %36, i32 noundef %37, i32 noundef %38, ptr noundef %39, ptr noundef %40)
  store i1 %41, ptr %6, align 1
  br label %68

42:                                               ; preds = %28
  %43 = load i32, ptr %8, align 4
  %44 = add i32 %43, 4
  %45 = load i32, ptr %8, align 4
  %46 = icmp ugt i32 %44, %45
  br i1 %46, label %47, label %52

47:                                               ; preds = %42
  %48 = load i32, ptr %8, align 4
  %49 = add i32 %48, 4
  %50 = load i32, ptr %9, align 4
  %51 = icmp ule i32 %49, %50
  br i1 %51, label %53, label %52

52:                                               ; preds = %47, %42
  store i1 false, ptr %6, align 1
  br label %68

53:                                               ; preds = %47
  %54 = load ptr, ptr %7, align 8
  %55 = load i32, ptr %8, align 4
  %56 = add i32 %55, 2
  %57 = sext i32 %56 to i64
  %58 = getelementptr i8, ptr %54, i64 %57
  %59 = call zeroext i16 @pntoh16(ptr noundef %58)
  %60 = zext i16 %59 to i32
  %61 = load ptr, ptr %7, align 8
  %62 = load i32, ptr %8, align 4
  %63 = add i32 %62, 4
  %64 = load i32, ptr %9, align 4
  %65 = load ptr, ptr %10, align 8
  %66 = load ptr, ptr %11, align 8
  %67 = call zeroext i1 @try_capture_dissector(ptr noundef @.str.22, i32 noundef %60, ptr noundef %61, i32 noundef %63, i32 noundef %64, ptr noundef %65, ptr noundef %66)
  store i1 %67, ptr %6, align 1
  br label %68

68:                                               ; preds = %53, %52, %34, %21
  %69 = load i1, ptr %6, align 1
  ret i1 %69
}