; Function Attrs: null_pointer_is_valid sspstrong uwtable
define internal zeroext i1 @capture_ppp_hdlc(ptr noundef %0, i32 noundef %1, i32 noundef %2, ptr noundef %3, ptr noundef %4) #1 {
  %6 = add i32 %1, 2
  %7 = icmp ugt i32 %1, -3
  %.not = icmp ugt i32 %6, %2
  %or.cond = or i1 %7, %.not
  br i1 %or.cond, label %25, label %8

8:                                                ; preds = %5
  %9 = load i8, ptr %0, align 1
  switch i8 %9, label %13 [
    i8 15, label %10
    i8 -113, label %10
  ]

10:                                               ; preds = %8, %8
  %11 = load ptr, ptr @chdlc_cap_handle, align 8
  %12 = tail call zeroext i1 @call_capture_dissector(ptr noundef %11, ptr noundef %0, i32 noundef %1, i32 noundef %2, ptr noundef %3, ptr noundef %4)
  br label %25

13:                                               ; preds = %8
  %14 = add i32 %1, 4
  %15 = icmp ugt i32 %1, -5
  %.not27 = icmp ugt i32 %14, %2
  %or.cond28 = or i1 %15, %.not27
  br i1 %or.cond28, label %25, label %16

16:                                               ; preds = %13
  %17 = sext i32 %6 to i64
  %18 = getelementptr i8, ptr %0, i64 %17
  %.val = load i8, ptr %18, align 1
  %19 = getelementptr i8, ptr %18, i64 1
  %.val29 = load i8, ptr %19, align 1
  %20 = zext i8 %.val to i32
  %21 = shl nuw nsw i32 %20, 8
  %22 = zext i8 %.val29 to i32
  %23 = or disjoint i32 %21, %22
  %24 = tail call zeroext i1 @try_capture_dissector(ptr noundef nonnull @.str.22, i32 noundef %23, ptr noundef %0, i32 noundef %14, i32 noundef %2, ptr noundef %3, ptr noundef %4)
  br label %25

25:                                               ; preds = %13, %5, %16, %10
  %.0 = phi i1 [ %12, %10 ], [ %24, %16 ], [ false, %5 ], [ false, %13 ]
  ret i1 %.0
}